target datalayout = "e-m:e-p270:32:32-p271:32:32-p272:64:64-i64:64-i128:128-f80:128-n8:16:32:64-S128"
target triple = "x86_64-pc-linux-gnu"

; Function Attrs: nounwind uwtable
define internal void @lsp2polyf(ptr noundef %0, ptr noundef %1, i32 noundef %2) #0 {
  %4 = alloca ptr, align 8
  %5 = alloca ptr, align 8
  %6 = alloca i32, align 4
  %7 = alloca i32, align 4
  %8 = alloca i32, align 4
  %9 = alloca double, align 8
  %10 = alloca i32, align 4
  store ptr %0, ptr %4, align 8, !tbaa !26
  store ptr %1, ptr %5, align 8, !tbaa !26
  store i32 %2, ptr %6, align 4, !tbaa !9
  %11 = load ptr, ptr %5, align 8, !tbaa !26
  %12 = getelementptr inbounds double, ptr %11, i64 0
  store double 1.000000e+00, ptr %12, align 8, !tbaa !19
  %13 = load ptr, ptr %4, align 8, !tbaa !26
  %14 = getelementptr inbounds double, ptr %13, i64 0
  %15 = load double, ptr %14, align 8, !tbaa !19
  %16 = fmul nsz double -2.000000e+00, %15
  %17 = load ptr, ptr %5, align 8, !tbaa !26
  %18 = getelementptr inbounds double, ptr %17, i64 1
  store double %16, ptr %18, align 8, !tbaa !19
  %19 = load ptr, ptr %4, align 8, !tbaa !26
  %20 = getelementptr inbounds double, ptr %19, i64 -2
  store ptr %20, ptr %4, align 8, !tbaa !26
  call void @llvm.lifetime.start.p0(i64 4, ptr %7) #3
  store i32 2, ptr %7, align 4, !tbaa !9
  br label %21

21:                                               ; preds = %89, %3
  %22 = load i32, ptr %7, align 4, !tbaa !9
  %23 = load i32, ptr %6, align 4, !tbaa !9
  %24 = icmp sle i32 %22, %23
  br i1 %24, label %26, label %25

25:                                               ; preds = %21
  store i32 2, ptr %8, align 4
  call void @llvm.lifetime.end.p0(i64 4, ptr %7) #3
  br label %92

26:                                               ; preds = %21
  call void @llvm.lifetime.start.p0(i64 8, ptr %9) #3
  %27 = load ptr, ptr %4, align 8, !tbaa !26
  %28 = load i32, ptr %7, align 4, !tbaa !9
  %29 = mul nsw i32 2, %28
  %30 = sext i32 %29 to i64
  %31 = getelementptr inbounds double, ptr %27, i64 %30
  %32 = load double, ptr %31, align 8, !tbaa !19
  %33 = fmul nsz double -2.000000e+00, %32
  store double %33, ptr %9, align 8, !tbaa !19
  %34 = load double, ptr %9, align 8, !tbaa !19
  %35 = load ptr, ptr %5, align 8, !tbaa !26
  %36 = load i32, ptr %7, align 4, !tbaa !9
  %37 = sub nsw i32 %36, 1
  %38 = sext i32 %37 to i64
  %39 = getelementptr inbounds double, ptr %35, i64 %38
  %40 = load double, ptr %39, align 8, !tbaa !19
  %41 = load ptr, ptr %5, align 8, !tbaa !26
  %42 = load i32, ptr %7, align 4, !tbaa !9
  %43 = sub nsw i32 %42, 2
  %44 = sext i32 %43 to i64
  %45 = getelementptr inbounds double, ptr %41, i64 %44
  %46 = load double, ptr %45, align 8, !tbaa !19
  %47 = fmul nsz double 2.000000e+00, %46
  %48 = call nsz double @llvm.fmuladd.f64(double %34, double %40, double %47)
  %49 = load ptr, ptr %5, align 8, !tbaa !26
  %50 = load i32, ptr %7, align 4, !tbaa !9
  %51 = sext i32 %50 to i64
  %52 = getelementptr inbounds double, ptr %49, i64 %51
  store double %48, ptr %52, align 8, !tbaa !19
  call void @llvm.lifetime.start.p0(i64 4, ptr %10) #3
  %53 = load i32, ptr %7, align 4, !tbaa !9
  %54 = sub nsw i32 %53, 1
  store i32 %54, ptr %10, align 4, !tbaa !9
  br label %55

55:                                               ; preds = %80, %26
  %56 = load i32, ptr %10, align 4, !tbaa !9
  %57 = icmp sgt i32 %56, 1
  br i1 %57, label %59, label %58

58:                                               ; preds = %55
  store i32 5, ptr %8, align 4
  call void @llvm.lifetime.end.p0(i64 4, ptr %10) #3
  br label %83

59:                                               ; preds = %55
  %60 = load ptr, ptr %5, align 8, !tbaa !26
  %61 = load i32, ptr %10, align 4, !tbaa !9
  %62 = sub nsw i32 %61, 1
  %63 = sext i32 %62 to i64
  %64 = getelementptr inbounds double, ptr %60, i64 %63
  %65 = load double, ptr %64, align 8, !tbaa !19
  %66 = load double, ptr %9, align 8, !tbaa !19
  %67 = load ptr, ptr %5, align 8, !tbaa !26
  %68 = load i32, ptr %10, align 4, !tbaa !9
  %69 = sub nsw i32 %68, 2
  %70 = sext i32 %69 to i64
  %71 = getelementptr inbounds double, ptr %67, i64 %70
  %72 = load double, ptr %71, align 8, !tbaa !19
  %73 = call nsz double @llvm.fmuladd.f64(double %65, double %66, double %72)
  %74 = load ptr, ptr %5, align 8, !tbaa !26
  %75 = load i32, ptr %10, align 4, !tbaa !9
  %76 = sext i32 %75 to i64
  %77 = getelementptr inbounds double, ptr %74, i64 %76
  %78 = load double, ptr %77, align 8, !tbaa !19
  %79 = fadd nsz double %78, %73
  store double %79, ptr %77, align 8, !tbaa !19
  br label %80

80:                                               ; preds = %59
  %81 = load i32, ptr %10, align 4, !tbaa !9
  %82 = add nsw i32 %81, -1
  store i32 %82, ptr %10, align 4, !tbaa !9
  br label %55, !llvm.loop !30

83:                                               ; preds = %58
  %84 = load double, ptr %9, align 8, !tbaa !19
  %85 = load ptr, ptr %5, align 8, !tbaa !26
  %86 = getelementptr inbounds double, ptr %85, i64 1
  %87 = load double, ptr %86, align 8, !tbaa !19
  %88 = fadd nsz double %87, %84
  store double %88, ptr %86, align 8, !tbaa !19
  call void @llvm.lifetime.end.p0(i64 8, ptr %9) #3
  br label %89

89:                                               ; preds = %83
  %90 = load i32, ptr %7, align 4, !tbaa !9
  %91 = add nsw i32 %90, 1
  store i32 %91, ptr %7, align 4, !tbaa !9
  br label %21, !llvm.loop !31

92:                                               ; preds = %25
  ret void
}

; Function Attrs: nounwind uwtable
define void @ff_acelp_lspd2lpc(ptr noundef %0, ptr noundef %1, i32 noundef %2) #0 {
  %4 = alloca ptr, align 8
  %5 = alloca ptr, align 8
  %6 = alloca i32, align 4
  %7 = alloca [11 x double], align 16
  %8 = alloca [11 x double], align 16
  %9 = alloca ptr, align 8
  %10 = alloca double, align 8
  %11 = alloca double, align 8
  store ptr %0, ptr %4, align 8, !tbaa !26
  store ptr %1, ptr %5, align 8, !tbaa !17
  store i32 %2, ptr %6, align 4, !tbaa !9
  call void @llvm.lifetime.start.p0(i64 88, ptr %7) #3
  call void @llvm.lifetime.start.p0(i64 88, ptr %8) #3
  call void @llvm.lifetime.start.p0(i64 8, ptr %9) #3
  %12 = load ptr, ptr %5, align 8, !tbaa !17
  %13 = load i32, ptr %6, align 4, !tbaa !9
  %14 = shl i32 %13, 1
  %15 = sext i32 %14 to i64
  %16 = getelementptr inbounds float, ptr %12, i64 %15
  %17 = getelementptr inbounds float, ptr %16, i64 -1
  store ptr %17, ptr %9, align 8, !tbaa !17
  %18 = load ptr, ptr %4, align 8, !tbaa !26
  %19 = getelementptr inbounds [11 x double], ptr %7, i64 0, i64 0
  %20 = load i32, ptr %6, align 4, !tbaa !9
  call void @lsp2polyf(ptr noundef %18, ptr noundef %19, i32 noundef %20)
  %21 = load ptr, ptr %4, align 8, !tbaa !26
  %22 = getelementptr inbounds double, ptr %21, i64 1
  %23 = getelementptr inbounds [11 x double], ptr %8, i64 0, i64 0
  %24 = load i32, ptr %6, align 4, !tbaa !9
  call void @lsp2polyf(ptr noundef %22, ptr noundef %23, i32 noundef %24)
  br label %25

25:                                               ; preds = %29, %3
  %26 = load i32, ptr %6, align 4, !tbaa !9
  %27 = add nsw i32 %26, -1
  store i32 %27, ptr %6, align 4, !tbaa !9
  %28 = icmp ne i32 %26, 0
  br i1 %28, label %29, label %69

29:                                               ; preds = %25
  call void @llvm.lifetime.start.p0(i64 8, ptr %10) #3
  %30 = load i32, ptr %6, align 4, !tbaa !9
  %31 = add nsw i32 %30, 1
  %32 = sext i32 %31 to i64
  %33 = getelementptr inbounds [11 x double], ptr %7, i64 0, i64 %32
  %34 = load double, ptr %33, align 8, !tbaa !19
  %35 = load i32, ptr %6, align 4, !tbaa !9
  %36 = sext i32 %35 to i64
  %37 = getelementptr inbounds [11 x double], ptr %7, i64 0, i64 %36
  %38 = load double, ptr %37, align 8, !tbaa !19
  %39 = fadd nsz double %34, %38
  store double %39, ptr %10, align 8, !tbaa !19
  call void @llvm.lifetime.start.p0(i64 8, ptr %11) #3
  %40 = load i32, ptr %6, align 4, !tbaa !9
  %41 = add nsw i32 %40, 1
  %42 = sext i32 %41 to i64
  %43 = getelementptr inbounds [11 x double], ptr %8, i64 0, i64 %42
  %44 = load double, ptr %43, align 8, !tbaa !19
  %45 = load i32, ptr %6, align 4, !tbaa !9
  %46 = sext i32 %45 to i64
  %47 = getelementptr inbounds [11 x double], ptr %8, i64 0, i64 %46
  %48 = load double, ptr %47, align 8, !tbaa !19
  %49 = fsub nsz double %44, %48
  store double %49, ptr %11, align 8, !tbaa !19
  %50 = load double, ptr %10, align 8, !tbaa !19
  %51 = load double, ptr %11, align 8, !tbaa !19
  %52 = fadd nsz double %50, %51
  %53 = fmul nsz double 5.000000e-01, %52
  %54 = fptrunc nsz double %53 to float
  %55 = load ptr, ptr %5, align 8, !tbaa !17
  %56 = load i32, ptr %6, align 4, !tbaa !9
  %57 = sext i32 %56 to i64
  %58 = getelementptr inbounds float, ptr %55, i64 %57
  store float %54, ptr %58, align 4, !tbaa !21
  %59 = load double, ptr %10, align 8, !tbaa !19
  %60 = load double, ptr %11, align 8, !tbaa !19
  %61 = fsub nsz double %59, %60
  %62 = fmul nsz double 5.000000e-01, %61
  %63 = fptrunc nsz double %62 to float
  %64 = load ptr, ptr %9, align 8, !tbaa !17
  %65 = load i32, ptr %6, align 4, !tbaa !9
  %66 = sub nsw i32 0, %65
  %67 = sext i32 %66 to i64
  %68 = getelementptr inbounds float, ptr %64, i64 %67
  store float %63, ptr %68, align 4, !tbaa !21
  call void @llvm.lifetime.end.p0(i64 8, ptr %11) #3
  call void @llvm.lifetime.end.p0(i64 8, ptr %10) #3
  br label %25, !llvm.loop !34

69:                                               ; preds = %25
  call void @llvm.lifetime.end.p0(i64 8, ptr %9) #3
  call void @llvm.lifetime.end.p0(i64 88, ptr %8) #3
  call void @llvm.lifetime.end.p0(i64 88, ptr %7) #3
  ret void
}