; Function Attrs: nofree norecurse nosync nounwind memory(argmem: readwrite) uwtable
define void @ff_acelp_lspd2lpc(ptr noundef readonly captures(none) %0, ptr noundef writeonly captures(none) %1, i32 noundef %2) local_unnamed_addr #0 {
  %4 = alloca [11 x double], align 16
  %5 = alloca [11 x double], align 16
  call void @llvm.lifetime.start.p0(i64 88, ptr nonnull %4) #4
  call void @llvm.lifetime.start.p0(i64 88, ptr nonnull %5) #4
  %6 = shl i32 %2, 1
  %7 = sext i32 %6 to i64
  %8 = getelementptr inbounds float, ptr %1, i64 %7
  %9 = getelementptr inbounds i8, ptr %8, i64 -4
  store double 1.000000e+00, ptr %4, align 16, !tbaa !16
  %10 = load double, ptr %0, align 8, !tbaa !16
  %11 = fmul nsz double %10, -2.000000e+00
  %12 = getelementptr inbounds nuw i8, ptr %4, i64 8
  store double %11, ptr %12, align 8, !tbaa !16
  %13 = getelementptr inbounds i8, ptr %0, i64 -16
  %.not29.i = icmp slt i32 %2, 2
  br i1 %.not29.i, label %lsp2polyf.exit.thread, label %.lr.ph32.preheader.i

lsp2polyf.exit.thread:                            ; preds = %3
  %14 = getelementptr inbounds nuw i8, ptr %0, i64 8
  store double 1.000000e+00, ptr %5, align 16, !tbaa !16
  %15 = load double, ptr %14, align 8, !tbaa !16
  %16 = fmul nsz double %15, -2.000000e+00
  %17 = getelementptr inbounds nuw i8, ptr %5, i64 8
  store double %16, ptr %17, align 8, !tbaa !16
  br label %lsp2polyf.exit34

.lr.ph32.preheader.i:                             ; preds = %3
  %18 = add nuw i32 %2, 1
  %wide.trip.count.i = zext i32 %18 to i64
  %invariant.gep.i = getelementptr i8, ptr %4, i64 -8
  br label %.lr.ph32.i

.lr.ph32.i:                                       ; preds = %._crit_edge.i, %.lr.ph32.preheader.i
  %indvars.iv37.i = phi i64 [ 2, %.lr.ph32.preheader.i ], [ %indvars.iv.next38.i, %._crit_edge.i ]
  %indvars.iv.i = phi i64 [ 1, %.lr.ph32.preheader.i ], [ %indvars.iv.next.i, %._crit_edge.i ]
  %.idx.i = shl nuw nsw i64 %indvars.iv37.i, 4
  %19 = getelementptr inbounds nuw i8, ptr %13, i64 %.idx.i
  %20 = load double, ptr %19, align 8, !tbaa !16
  %21 = fmul nsz double %20, -2.000000e+00
  %gep.i = getelementptr double, ptr %invariant.gep.i, i64 %indvars.iv37.i
  %22 = load double, ptr %gep.i, align 8, !tbaa !16
  %23 = getelementptr double, ptr %4, i64 %indvars.iv37.i
  %24 = getelementptr i8, ptr %23, i64 -16
  %25 = load double, ptr %24, align 8, !tbaa !16
  %26 = fmul nsz double %25, 2.000000e+00
  %27 = tail call nsz double @llvm.fmuladd.f64(double %21, double %22, double %26)
  store double %27, ptr %23, align 8, !tbaa !16
  %28 = icmp samesign ugt i64 %indvars.iv37.i, 2
  br i1 %28, label %.lr.ph.i, label %._crit_edge.i

._crit_edge.i:                                    ; preds = %.lr.ph.i, %.lr.ph32.i
  %29 = load double, ptr %12, align 8, !tbaa !16
  %30 = fadd nsz double %21, %29
  store double %30, ptr %12, align 8, !tbaa !16
  %indvars.iv.next38.i = add nuw nsw i64 %indvars.iv37.i, 1
  %indvars.iv.next.i = add nuw nsw i64 %indvars.iv.i, 1
  %exitcond.not.i = icmp eq i64 %indvars.iv.next38.i, %wide.trip.count.i
  br i1 %exitcond.not.i, label %lsp2polyf.exit, label %.lr.ph32.i, !llvm.loop !19

.lr.ph.i:                                         ; preds = %.lr.ph32.i, %.lr.ph.i
  %indvars.iv34.i = phi i64 [ %indvars.iv.next35.i, %.lr.ph.i ], [ %indvars.iv.i, %.lr.ph32.i ]
  %31 = getelementptr double, ptr %4, i64 %indvars.iv34.i
  %32 = getelementptr i8, ptr %31, i64 -8
  %33 = load double, ptr %32, align 8, !tbaa !16
  %34 = getelementptr i8, ptr %31, i64 -16
  %35 = load double, ptr %34, align 8, !tbaa !16
  %36 = tail call nsz double @llvm.fmuladd.f64(double %33, double %21, double %35)
  %37 = load double, ptr %31, align 8, !tbaa !16
  %38 = fadd nsz double %37, %36
  store double %38, ptr %31, align 8, !tbaa !16
  %indvars.iv.next35.i = add nsw i64 %indvars.iv34.i, -1
  %39 = icmp sgt i64 %indvars.iv34.i, 2
  br i1 %39, label %.lr.ph.i, label %._crit_edge.i, !llvm.loop !20

lsp2polyf.exit:                                   ; preds = %._crit_edge.i
  %40 = getelementptr inbounds nuw i8, ptr %0, i64 8
  store double 1.000000e+00, ptr %5, align 16, !tbaa !16
  %41 = load double, ptr %40, align 8, !tbaa !16
  %42 = fmul nsz double %41, -2.000000e+00
  %43 = getelementptr inbounds nuw i8, ptr %5, i64 8
  store double %42, ptr %43, align 8, !tbaa !16
  %44 = getelementptr inbounds i8, ptr %0, i64 -8
  %invariant.gep.i21 = getelementptr i8, ptr %5, i64 -8
  br label %.lr.ph32.i22

.lr.ph32.i22:                                     ; preds = %._crit_edge.i27, %lsp2polyf.exit
  %indvars.iv37.i23 = phi i64 [ 2, %lsp2polyf.exit ], [ %indvars.iv.next38.i28, %._crit_edge.i27 ]
  %indvars.iv.i24 = phi i64 [ 1, %lsp2polyf.exit ], [ %indvars.iv.next.i29, %._crit_edge.i27 ]
  %.idx.i25 = shl nuw nsw i64 %indvars.iv37.i23, 4
  %45 = getelementptr inbounds nuw i8, ptr %44, i64 %.idx.i25
  %46 = load double, ptr %45, align 8, !tbaa !16
  %47 = fmul nsz double %46, -2.000000e+00
  %gep.i26 = getelementptr double, ptr %invariant.gep.i21, i64 %indvars.iv37.i23
  %48 = load double, ptr %gep.i26, align 8, !tbaa !16
  %49 = getelementptr double, ptr %5, i64 %indvars.iv37.i23
  %50 = getelementptr i8, ptr %49, i64 -16
  %51 = load double, ptr %50, align 8, !tbaa !16
  %52 = fmul nsz double %51, 2.000000e+00
  %53 = tail call nsz double @llvm.fmuladd.f64(double %47, double %48, double %52)
  store double %53, ptr %49, align 8, !tbaa !16
  %54 = icmp samesign ugt i64 %indvars.iv37.i23, 2
  br i1 %54, label %.lr.ph.i31, label %._crit_edge.i27

._crit_edge.i27:                                  ; preds = %.lr.ph.i31, %.lr.ph32.i22
  %55 = load double, ptr %43, align 8, !tbaa !16
  %56 = fadd nsz double %47, %55
  store double %56, ptr %43, align 8, !tbaa !16
  %indvars.iv.next38.i28 = add nuw nsw i64 %indvars.iv37.i23, 1
  %indvars.iv.next.i29 = add nuw nsw i64 %indvars.iv.i24, 1
  %exitcond.not.i30 = icmp eq i64 %indvars.iv.next38.i28, %wide.trip.count.i
  br i1 %exitcond.not.i30, label %lsp2polyf.exit34, label %.lr.ph32.i22, !llvm.loop !19

.lr.ph.i31:                                       ; preds = %.lr.ph32.i22, %.lr.ph.i31
  %indvars.iv34.i32 = phi i64 [ %indvars.iv.next35.i33, %.lr.ph.i31 ], [ %indvars.iv.i24, %.lr.ph32.i22 ]
  %57 = getelementptr double, ptr %5, i64 %indvars.iv34.i32
  %58 = getelementptr i8, ptr %57, i64 -8
  %59 = load double, ptr %58, align 8, !tbaa !16
  %60 = getelementptr i8, ptr %57, i64 -16
  %61 = load double, ptr %60, align 8, !tbaa !16
  %62 = tail call nsz double @llvm.fmuladd.f64(double %59, double %47, double %61)
  %63 = load double, ptr %57, align 8, !tbaa !16
  %64 = fadd nsz double %63, %62
  store double %64, ptr %57, align 8, !tbaa !16
  %indvars.iv.next35.i33 = add nsw i64 %indvars.iv34.i32, -1
  %65 = icmp sgt i64 %indvars.iv34.i32, 2
  br i1 %65, label %.lr.ph.i31, label %._crit_edge.i27, !llvm.loop !20

lsp2polyf.exit34:                                 ; preds = %._crit_edge.i27, %lsp2polyf.exit.thread
  %.not35 = icmp eq i32 %2, 0
  br i1 %.not35, label %._crit_edge, label %.lr.ph.preheader

.lr.ph.preheader:                                 ; preds = %lsp2polyf.exit34
  %66 = sext i32 %2 to i64
  %.phi.trans.insert = getelementptr inbounds [11 x double], ptr %4, i64 0, i64 %66
  %.pre = load double, ptr %.phi.trans.insert, align 8, !tbaa !16
  %.phi.trans.insert38 = getelementptr inbounds [11 x double], ptr %5, i64 0, i64 %66
  %.pre39 = load double, ptr %.phi.trans.insert38, align 8, !tbaa !16
  br label %.lr.ph

.lr.ph:                                           ; preds = %.lr.ph.preheader, %.lr.ph
  %67 = phi double [ %.pre39, %.lr.ph.preheader ], [ %73, %.lr.ph ]
  %68 = phi double [ %.pre, %.lr.ph.preheader ], [ %70, %.lr.ph ]
  %indvars.iv = phi i64 [ %66, %.lr.ph.preheader ], [ %indvars.iv.next, %.lr.ph ]
  %indvars.iv.next = add nsw i64 %indvars.iv, -1
  %69 = getelementptr inbounds [11 x double], ptr %4, i64 0, i64 %indvars.iv.next
  %70 = load double, ptr %69, align 8, !tbaa !16
  %71 = fadd nsz double %68, %70
  %72 = getelementptr inbounds [11 x double], ptr %5, i64 0, i64 %indvars.iv.next
  %73 = load double, ptr %72, align 8, !tbaa !16
  %74 = fsub nsz double %67, %73
  %75 = fadd nsz double %71, %74
  %76 = fmul nsz double %75, 5.000000e-01
  %77 = fptrunc nsz double %76 to float
  %78 = getelementptr inbounds float, ptr %1, i64 %indvars.iv.next
  store float %77, ptr %78, align 4, !tbaa !12
  %79 = fsub nsz double %71, %74
  %80 = fmul nsz double %79, 5.000000e-01
  %81 = fptrunc nsz double %80 to float
  %82 = sub nsw i64 1, %indvars.iv
  %83 = getelementptr inbounds float, ptr %9, i64 %82
  store float %81, ptr %83, align 4, !tbaa !12
  %.not = icmp eq i64 %indvars.iv.next, 0
  br i1 %.not, label %._crit_edge, label %.lr.ph, !llvm.loop !28

._crit_edge:                                      ; preds = %.lr.ph, %lsp2polyf.exit34
  call void @llvm.lifetime.end.p0(i64 88, ptr nonnull %5) #4
  call void @llvm.lifetime.end.p0(i64 88, ptr nonnull %4) #4
  ret void
}